; ModuleID = '7/981.c'
source_filename = "7/981.c"
target datalayout = "e-m:e-p270:32:32-p271:32:32-p272:64:64-i64:64-f80:128-n8:16:32:64-S128"
target triple = "x86_64-pc-linux-gnu"

@.str = private unnamed_addr constant [3 x i8] c"%c\00", align 1

; Function Attrs: noinline nounwind uwtable
define dso_local i32 @main() #0 {
  %1 = alloca i32, align 4
  %2 = alloca i32, align 4
  %3 = alloca i32, align 4
  %4 = alloca i32, align 4
  %5 = alloca i32, align 4
  %6 = alloca i32, align 4
  %7 = alloca [256 x i8], align 16
  %8 = alloca [50 x i8], align 16
  %9 = alloca [50 x i8], align 16
  store i32 0, i32* %1, align 4
  %10 = getelementptr inbounds [256 x i8], [256 x i8]* %7, i64 0, i64 0
  %11 = call i32 (i8*, ...) bitcast (i32 (...)* @gets to i32 (i8*, ...)*)(i8* %10)
  %12 = getelementptr inbounds [50 x i8], [50 x i8]* %8, i64 0, i64 0
  %13 = call i32 (i8*, ...) bitcast (i32 (...)* @gets to i32 (i8*, ...)*)(i8* %12)
  %14 = getelementptr inbounds [50 x i8], [50 x i8]* %9, i64 0, i64 0
  %15 = call i32 (i8*, ...) bitcast (i32 (...)* @gets to i32 (i8*, ...)*)(i8* %14)
  %16 = getelementptr inbounds [256 x i8], [256 x i8]* %7, i64 0, i64 0
  %17 = call i64 @strlen(i8* %16) #3
  %18 = trunc i64 %17 to i32
  store i32 %18, i32* %4, align 4
  %19 = getelementptr inbounds [50 x i8], [50 x i8]* %8, i64 0, i64 0
  %20 = call i64 @strlen(i8* %19) #3
  %21 = trunc i64 %20 to i32
  store i32 %21, i32* %5, align 4
  %22 = getelementptr inbounds [50 x i8], [50 x i8]* %9, i64 0, i64 0
  %23 = call i64 @strlen(i8* %22) #3
  %24 = trunc i64 %23 to i32
  store i32 %24, i32* %6, align 4
  store i32 0, i32* %2, align 4
  br label %25

25:                                               ; preds = %114, %0
  %26 = load i32, i32* %2, align 4
  %27 = load i32, i32* %4, align 4
  %28 = load i32, i32* %5, align 4
  %29 = sub nsw i32 %27, %28
  %30 = icmp sle i32 %26, %29
  br i1 %30, label %31, label %117

31:                                               ; preds = %25
  %32 = load i32, i32* %2, align 4
  store i32 %32, i32* %3, align 4
  br label %33

33:                                               ; preds = %55, %31
  %34 = load i32, i32* %3, align 4
  %35 = load i32, i32* %2, align 4
  %36 = load i32, i32* %5, align 4
  %37 = add nsw i32 %35, %36
  %38 = icmp slt i32 %34, %37
  br i1 %38, label %39, label %58

39:                                               ; preds = %33
  %40 = load i32, i32* %3, align 4
  %41 = sext i32 %40 to i64
  %42 = getelementptr inbounds [256 x i8], [256 x i8]* %7, i64 0, i64 %41
  %43 = load i8, i8* %42, align 1
  %44 = sext i8 %43 to i32
  %45 = load i32, i32* %3, align 4
  %46 = load i32, i32* %2, align 4
  %47 = sub nsw i32 %45, %46
  %48 = sext i32 %47 to i64
  %49 = getelementptr inbounds [50 x i8], [50 x i8]* %8, i64 0, i64 %48
  %50 = load i8, i8* %49, align 1
  %51 = sext i8 %50 to i32
  %52 = icmp ne i32 %44, %51
  br i1 %52, label %53, label %54

53:                                               ; preds = %39
  br label %58

54:                                               ; preds = %39
  br label %55

55:                                               ; preds = %54
  %56 = load i32, i32* %3, align 4
  %57 = add nsw i32 %56, 1
  store i32 %57, i32* %3, align 4
  br label %33

58:                                               ; preds = %53, %33
  %59 = load i32, i32* %3, align 4
  %60 = load i32, i32* %2, align 4
  %61 = load i32, i32* %5, align 4
  %62 = add nsw i32 %60, %61
  %63 = icmp eq i32 %59, %62
  br i1 %63, label %64, label %113

64:                                               ; preds = %58
  store i32 0, i32* %3, align 4
  br label %65

65:                                               ; preds = %76, %64
  %66 = load i32, i32* %3, align 4
  %67 = load i32, i32* %2, align 4
  %68 = icmp slt i32 %66, %67
  br i1 %68, label %69, label %79

69:                                               ; preds = %65
  %70 = load i32, i32* %3, align 4
  %71 = sext i32 %70 to i64
  %72 = getelementptr inbounds [256 x i8], [256 x i8]* %7, i64 0, i64 %71
  %73 = load i8, i8* %72, align 1
  %74 = sext i8 %73 to i32
  %75 = call i32 (i8*, ...) @printf(i8* getelementptr inbounds ([3 x i8], [3 x i8]* @.str, i64 0, i64 0), i32 %74)
  br label %76

76:                                               ; preds = %69
  %77 = load i32, i32* %3, align 4
  %78 = add nsw i32 %77, 1
  store i32 %78, i32* %3, align 4
  br label %65

79:                                               ; preds = %65
  store i32 0, i32* %3, align 4
  br label %80

80:                                               ; preds = %91, %79
  %81 = load i32, i32* %3, align 4
  %82 = load i32, i32* %6, align 4
  %83 = icmp slt i32 %81, %82
  br i1 %83, label %84, label %94

84:                                               ; preds = %80
  %85 = load i32, i32* %3, align 4
  %86 = sext i32 %85 to i64
  %87 = getelementptr inbounds [50 x i8], [50 x i8]* %9, i64 0, i64 %86
  %88 = load i8, i8* %87, align 1
  %89 = sext i8 %88 to i32
  %90 = call i32 (i8*, ...) @printf(i8* getelementptr inbounds ([3 x i8], [3 x i8]* @.str, i64 0, i64 0), i32 %89)
  br label %91

91:                                               ; preds = %84
  %92 = load i32, i32* %3, align 4
  %93 = add nsw i32 %92, 1
  store i32 %93, i32* %3, align 4
  br label %80

94:                                               ; preds = %80
  %95 = load i32, i32* %2, align 4
  %96 = load i32, i32* %5, align 4
  %97 = add nsw i32 %95, %96
  store i32 %97, i32* %3, align 4
  br label %98

98:                                               ; preds = %109, %94
  %99 = load i32, i32* %3, align 4
  %100 = load i32, i32* %4, align 4
  %101 = icmp slt i32 %99, %100
  br i1 %101, label %102, label %112

102:                                              ; preds = %98
  %103 = load i32, i32* %3, align 4
  %104 = sext i32 %103 to i64
  %105 = getelementptr inbounds [256 x i8], [256 x i8]* %7, i64 0, i64 %104
  %106 = load i8, i8* %105, align 1
  %107 = sext i8 %106 to i32
  %108 = call i32 (i8*, ...) @printf(i8* getelementptr inbounds ([3 x i8], [3 x i8]* @.str, i64 0, i64 0), i32 %107)
  br label %109

109:                                              ; preds = %102
  %110 = load i32, i32* %3, align 4
  %111 = add nsw i32 %110, 1
  store i32 %111, i32* %3, align 4
  br label %98

112:                                              ; preds = %98
  br label %117

113:                                              ; preds = %58
  br label %114

114:                                              ; preds = %113
  %115 = load i32, i32* %2, align 4
  %116 = add nsw i32 %115, 1
  store i32 %116, i32* %2, align 4
  br label %25

117:                                              ; preds = %112, %25
  %118 = load i32, i32* %2, align 4
  %119 = load i32, i32* %4, align 4
  %120 = load i32, i32* %5, align 4
  %121 = sub nsw i32 %119, %120
  %122 = add nsw i32 %121, 1
  %123 = icmp eq i32 %118, %122
  br i1 %123, label %124, label %127

124:                                              ; preds = %117
  %125 = getelementptr inbounds [256 x i8], [256 x i8]* %7, i64 0, i64 0
  %126 = call i32 @puts(i8* %125)
  br label %127

127:                                              ; preds = %124, %117
  %128 = call i32 @getchar()
  %129 = call i32 @getchar()
  %130 = call i32 @getchar()
  %131 = call i32 @getchar()
  %132 = call i32 @getchar()
  %133 = load i32, i32* %1, align 4
  ret i32 %133
}

declare dso_local i32 @gets(...) #1

; Function Attrs: nounwind readonly
declare dso_local i64 @strlen(i8*) #2

declare dso_local i32 @printf(i8*, ...) #1

declare dso_local i32 @puts(i8*) #1

declare dso_local i32 @getchar() #1


!llvm.module.flags = !{!0}
!llvm.ident = !{!1}

!0 = !{i32 1, !"wchar_size", i32 4}
!1 = !{!"clang version 10.0.0-4ubuntu1 "}
